; Function Attrs: mustprogress nounwind uwtable
define dso_local void @_ZN5clang14NoSanitizeListD2Ev(ptr noundef nonnull align 8 captures(none) dereferenceable(16) %0) unnamed_addr #0 align 2 {
  %2 = load ptr, ptr %0, align 8
  %.not.i = icmp eq ptr %2, null
  br i1 %.not.i, label %_ZNSt10unique_ptrIN5clang24SanitizerSpecialCaseListESt14default_deleteIS1_EED2Ev.exit, label %3

3:                                                ; preds = %1
  %4 = getelementptr inbounds nuw i8, ptr %2, i64 24
  %5 = load ptr, ptr %4, align 8
  %.not.i.i.i.i.i.i = icmp eq ptr %5, null
  br i1 %.not.i.i.i.i.i.i, label %_ZNKSt14default_deleteIN5clang24SanitizerSpecialCaseListEEclEPS1_.exit.i, label %6

6:                                                ; preds = %3
  %7 = getelementptr inbounds nuw i8, ptr %2, i64 40
  %8 = load ptr, ptr %7, align 8
  %9 = ptrtoint ptr %8 to i64
  %10 = ptrtoint ptr %5 to i64
  %11 = sub i64 %9, %10
  tail call void @_ZdlPvm(ptr noundef nonnull %5, i64 noundef %11) #7
  br label %_ZNKSt14default_deleteIN5clang24SanitizerSpecialCaseListEEclEPS1_.exit.i

_ZNKSt14default_deleteIN5clang24SanitizerSpecialCaseListEEclEPS1_.exit.i: ; preds = %6, %3
  tail call void @_ZN4llvm15SpecialCaseListD2Ev(ptr noundef nonnull align 8 dereferenceable(48) %2) #6
  tail call void @_ZdlPvm(ptr noundef nonnull %2, i64 noundef 48) #7
  br label %_ZNSt10unique_ptrIN5clang24SanitizerSpecialCaseListESt14default_deleteIS1_EED2Ev.exit

_ZNSt10unique_ptrIN5clang24SanitizerSpecialCaseListESt14default_deleteIS1_EED2Ev.exit: ; preds = %1, %_ZNKSt14default_deleteIN5clang24SanitizerSpecialCaseListEEclEPS1_.exit.i
  store ptr null, ptr %0, align 8
  ret void
}